Certificate:
    Data:
        Version: 3 (0x2)
        Serial Number: 1 (0x1)
    Signature Algorithm: sha1WithRSAEncryption
        Issuer: DC=org, DC=simple, O=Simple Inc, OU=Simple Signing CA, CN=Simple Signing CA
        Validity
            Not Before: Apr 22 03:55:20 2019 GMT
            Not After : Apr 21 03:55:20 2021 GMT
        Subject: DC=org, DC=simple, O=Simple Inc, CN=Fred Flinstone
        Subject Public Key Info:
            Public Key Algorithm: rsaEncryption
                Public-Key: (2048 bit)
                Modulus:
                    00:ab:d5:46:41:ad:d0:f9:7c:59:1b:c4:1d:db:4a:
                    36:cb:ab:75:37:0b:9a:62:46:fd:98:36:c9:c0:70:
                    18:a2:dc:37:11:8e:c2:9e:02:18:e5:25:58:4b:8f:
                    4d:7f:bd:b1:86:21:ce:b4:5d:55:9f:4c:32:ff:ca:
                    14:bc:73:87:93:56:e0:28:17:5a:67:af:db:4e:87:
                    3f:d2:59:8b:b7:d9:3a:30:1f:90:b4:72:a0:c1:08:
                    ca:e2:79:22:b9:de:32:2f:9f:0b:42:d3:2a:ba:0f:
                    4d:1d:d9:3f:43:3f:4e:10:e2:88:14:da:71:fc:07:
                    ce:b1:0b:10:fc:5b:74:2d:52:75:b0:12:35:99:b4:
                    f7:7f:dd:68:0e:a0:63:c8:22:a0:ed:08:a7:8e:9f:
                    56:12:90:b8:5c:ae:9f:bd:a8:d5:66:d7:ab:de:f8:
                    07:5f:f7:70:f9:db:cd:ed:b0:76:6c:d5:15:57:4b:
                    f1:f8:c3:36:22:da:90:64:fa:2f:42:03:f8:83:ae:
                    3b:8a:17:34:92:8f:a4:8c:f3:df:eb:23:8a:74:8b:
                    9e:d3:be:51:44:09:d5:57:f2:36:93:f4:c1:66:42:
                    cc:a6:fd:fc:d9:a6:2a:4f:aa:59:1c:bc:06:4e:7d:
                    c0:67:f4:b9:cd:0a:aa:0c:66:f2:a3:d5:6c:1c:5b:
                    c0:af
                Exponent: 65537 (0x10001)
        X509v3 extensions:
            X509v3 Key Usage: critical
                Digital Signature, Key Encipherment
            X509v3 Basic Constraints: 
                CA:FALSE
            X509v3 Extended Key Usage: 
                E-mail Protection, TLS Web Client Authentication
            X509v3 Subject Key Identifier: 
                38:FB:D0:43:F7:8A:C8:84:F5:B7:5C:A0:B6:2B:11:BA:7E:87:F1:97
            X509v3 Authority Key Identifier: 
                keyid:A3:93:A7:75:E1:F6:7A:54:A3:8E:38:69:2E:5C:8F:DA:14:20:D8:8D

            X509v3 Subject Alternative Name: 
                email:fred@simple.org
    Signature Algorithm: sha1WithRSAEncryption
         2a:f8:9b:fa:db:7c:d6:8a:fa:b8:c4:b2:ea:14:34:30:44:c2:
         15:6e:42:9f:67:84:03:d6:a8:8b:08:ae:f6:75:47:b1:16:4f:
         20:01:07:0b:ca:f2:d2:c7:e3:71:17:0b:84:46:ef:b8:01:61:
         4e:8b:73:01:f3:a7:85:8d:f6:d8:5c:24:70:95:2f:49:90:80:
         9b:e9:71:ca:f5:dd:3c:6c:ba:22:b2:d5:99:90:e0:d9:8d:43:
         40:94:55:39:ae:81:64:b7:e7:be:d6:f9:be:2b:71:30:29:79:
         9b:04:25:d3:b8:0a:95:29:95:1d:e7:7f:92:3e:c4:28:7e:bb:
         cb:0c:27:d7:48:0b:0a:bf:8b:fd:63:c1:54:fa:70:eb:fe:4a:
         72:23:f3:35:ab:2a:07:3a:80:d4:70:7e:1d:3d:4b:cc:7a:e3:
         ac:14:c8:e7:f0:27:3b:47:7a:9c:71:af:5a:69:5e:8b:48:4f:
         9d:56:84:92:ab:1b:f7:04:5c:10:29:1c:de:54:70:f3:b8:bf:
         70:13:b9:c6:a3:22:8d:5c:2f:a1:76:2e:32:5a:25:c3:18:9d:
         c1:52:f0:72:92:b4:33:8e:b7:aa:3a:19:64:00:13:99:16:61:
         2e:ae:82:04:fc:47:a3:fa:05:f3:71:11:bb:d5:f6:86:22:0b:
         85:e9:d7:67
-----BEGIN CERTIFICATE-----
MIID6jCCAtKgAwIBAgIBATANBgkqhkiG9w0BAQUFADB6MRMwEQYKCZImiZPyLGQB
GRYDb3JnMRYwFAYKCZImiZPyLGQBGRYGc2ltcGxlMRMwEQYDVQQKDApTaW1wbGUg
SW5jMRowGAYDVQQLDBFTaW1wbGUgU2lnbmluZyBDQTEaMBgGA1UEAwwRU2ltcGxl
IFNpZ25pbmcgQ0EwHhcNMTkwNDIyMDM1NTIwWhcNMjEwNDIxMDM1NTIwWjBbMRMw
EQYKCZImiZPyLGQBGRYDb3JnMRYwFAYKCZImiZPyLGQBGRYGc2ltcGxlMRMwEQYD
VQQKDApTaW1wbGUgSW5jMRcwFQYDVQQDDA5GcmVkIEZsaW5zdG9uZTCCASIwDQYJ
KoZIhvcNAQEBBQADggEPADCCAQoCggEBAKvVRkGt0Pl8WRvEHdtKNsurdTcLmmJG
/Zg2ycBwGKLcNxGOwp4CGOUlWEuPTX+9sYYhzrRdVZ9MMv/KFLxzh5NW4CgXWmev
206HP9JZi7fZOjAfkLRyoMEIyuJ5IrneMi+fC0LTKroPTR3ZP0M/ThDiiBTacfwH
zrELEPxbdC1SdbASNZm093/daA6gY8gioO0Ip46fVhKQuFyun72o1WbXq974B1/3
cPnbze2wdmzVFVdL8fjDNiLakGT6L0ID+IOuO4oXNJKPpIzz3+sjinSLntO+UUQJ
1VfyNpP0wWZCzKb9/NmmKk+qWRy8Bk59wGf0uc0Kqgxm8qPVbBxbwK8CAwEAAaOB
mTCBljAOBgNVHQ8BAf8EBAMCBaAwCQYDVR0TBAIwADAdBgNVHSUEFjAUBggrBgEF
BQcDBAYIKwYBBQUHAwIwHQYDVR0OBBYEFDj70EP3isiE9bdcoLYrEbp+h/GXMB8G
A1UdIwQYMBaAFKOTp3Xh9npUo444aS5cj9oUINiNMBoGA1UdEQQTMBGBD2ZyZWRA
c2ltcGxlLm9yZzANBgkqhkiG9w0BAQUFAAOCAQEAKvib+tt81or6uMSy6hQ0METC
FW5Cn2eEA9aoiwiu9nVHsRZPIAEHC8ry0sfjcRcLhEbvuAFhTotzAfOnhY322Fwk
cJUvSZCAm+lxyvXdPGy6IrLVmZDg2Y1DQJRVOa6BZLfnvtb5vitxMCl5mwQl07gK
lSmVHed/kj7EKH67ywwn10gLCr+L/WPBVPpw6/5KciPzNasqBzqA1HB+HT1LzHrj
rBTI5/AnO0d6nHGvWmlei0hPnVaEkqsb9wRcECkc3lRw87i/cBO5xqMijVwvoXYu
MlolwxidwVLwcpK0M463qjoZZAATmRZhLq6CBPxHo/oF83ERu9X2hiILhenXZw==
-----END CERTIFICATE-----
