Certificate:
    Data:
        Version: 3 (0x2)
        Serial Number: 2 (0x2)
    Signature Algorithm: sha1WithRSAEncryption
        Issuer: DC=org, DC=simple, O=Simple Inc, OU=Simple Signing CA, CN=Simple Signing CA
        Validity
            Not Before: Apr 22 03:56:50 2019 GMT
            Not After : Apr 21 03:56:50 2021 GMT
        Subject: DC=org, DC=simple, O=Simple Inc, OU=. , CN=www.simple.org
        Subject Public Key Info:
            Public Key Algorithm: rsaEncryption
                Public-Key: (2048 bit)
                Modulus:
                    00:d0:dd:cc:bf:cb:ee:ac:9a:f2:f7:90:22:fb:24:
                    72:77:a2:a4:f9:b9:d5:a7:5f:6c:69:aa:87:59:3c:
                    21:0c:31:2a:a6:40:1b:c8:6e:fa:0c:d1:65:6a:f7:
                    7d:4e:43:59:27:c3:61:60:39:a5:4c:88:ce:08:02:
                    d8:60:7b:e2:a8:87:25:54:44:be:cd:44:4a:ab:f9:
                    ef:df:23:31:01:42:86:0d:e2:60:ff:5b:3e:ea:9c:
                    b2:d5:ce:bb:76:67:de:61:68:0d:4c:b1:db:22:c6:
                    7b:c9:fd:3d:fd:99:b4:b3:10:ac:6b:31:18:5d:b1:
                    77:f0:d7:46:c5:9d:5c:22:e6:78:c5:7f:4f:75:1d:
                    67:42:b1:f0:00:d8:76:64:fb:3f:9d:45:f3:0d:da:
                    6f:4f:3a:a0:88:40:af:65:96:ad:26:ea:27:24:24:
                    b1:a7:75:73:6d:53:1a:41:57:ab:99:d8:a0:9b:ed:
                    cd:c3:22:1b:ed:da:e0:29:f8:c2:d8:e0:5c:41:80:
                    d6:3b:83:94:ad:26:db:24:cb:db:ba:8e:5e:f7:99:
                    b7:bf:76:3e:20:8b:2c:ae:be:16:28:67:ce:1a:ce:
                    2f:05:d2:a2:fd:5a:d5:17:84:03:8e:b3:99:f4:60:
                    a8:24:44:4e:81:99:c3:54:31:ac:cc:e6:39:ad:b1:
                    c6:f7
                Exponent: 65537 (0x10001)
        X509v3 extensions:
            X509v3 Key Usage: critical
                Digital Signature, Key Encipherment
            X509v3 Basic Constraints: 
                CA:FALSE
            X509v3 Extended Key Usage: 
                TLS Web Server Authentication, TLS Web Client Authentication
            X509v3 Subject Key Identifier: 
                A7:B9:15:27:46:B5:4C:E1:7F:54:DE:AD:2F:CD:E7:5F:60:AB:BF:4E
            X509v3 Authority Key Identifier: 
                keyid:A3:93:A7:75:E1:F6:7A:54:A3:8E:38:69:2E:5C:8F:DA:14:20:D8:8D

            X509v3 Subject Alternative Name: 
                DNS:yourdomain.tld
    Signature Algorithm: sha1WithRSAEncryption
         e1:cb:8f:29:e7:6a:50:6e:c9:37:c2:aa:00:27:e0:ff:86:a3:
         a3:71:72:63:de:91:f4:d8:7e:c6:fd:0b:cb:49:12:e3:07:4e:
         69:5d:15:ac:24:1c:f1:88:cf:ac:c7:90:39:f8:8f:6f:da:12:
         a5:9d:78:10:07:24:70:d8:7b:9b:bb:56:34:1b:75:35:c7:d0:
         38:0a:7c:ce:6c:17:c9:ff:33:73:3d:99:46:9e:40:0a:63:f2:
         87:ef:99:54:4c:1b:5d:1b:cc:97:aa:b7:93:32:af:e1:40:0c:
         29:84:cc:b3:92:6b:20:1e:49:b0:27:d1:ba:67:c9:64:9c:59:
         c0:7a:02:9c:fd:40:11:9f:fe:b9:83:2f:75:7b:5e:cb:c2:8a:
         d3:1e:5f:be:40:1f:da:a9:99:d4:a2:83:56:fb:7d:cf:03:0c:
         99:65:28:a5:ea:ed:02:6e:aa:64:43:b9:59:e1:32:6c:b1:6d:
         ae:fd:22:33:e7:cd:69:e8:5e:74:45:ce:7e:a4:3e:9d:27:ab:
         77:e3:b3:e3:1f:82:e9:45:35:42:f7:43:34:2a:a1:cb:45:38:
         f0:a7:9c:94:1d:c0:8d:22:8e:97:d0:92:b5:f6:8f:36:e0:3b:
         c1:3b:7a:56:74:fa:b6:0f:59:37:c0:4a:24:13:4e:4c:2f:99:
         06:4f:ed:16
-----BEGIN CERTIFICATE-----
MIID9jCCAt6gAwIBAgIBAjANBgkqhkiG9w0BAQUFADB6MRMwEQYKCZImiZPyLGQB
GRYDb3JnMRYwFAYKCZImiZPyLGQBGRYGc2ltcGxlMRMwEQYDVQQKDApTaW1wbGUg
SW5jMRowGAYDVQQLDBFTaW1wbGUgU2lnbmluZyBDQTEaMBgGA1UEAwwRU2ltcGxl
IFNpZ25pbmcgQ0EwHhcNMTkwNDIyMDM1NjUwWhcNMjEwNDIxMDM1NjUwWjBoMRMw
EQYKCZImiZPyLGQBGRYDb3JnMRYwFAYKCZImiZPyLGQBGRYGc2ltcGxlMRMwEQYD
VQQKDApTaW1wbGUgSW5jMQswCQYDVQQLDAIuIDEXMBUGA1UEAwwOd3d3LnNpbXBs
ZS5vcmcwggEiMA0GCSqGSIb3DQEBAQUAA4IBDwAwggEKAoIBAQDQ3cy/y+6smvL3
kCL7JHJ3oqT5udWnX2xpqodZPCEMMSqmQBvIbvoM0WVq931OQ1knw2FgOaVMiM4I
Athge+KohyVURL7NREqr+e/fIzEBQoYN4mD/Wz7qnLLVzrt2Z95haA1MsdsixnvJ
/T39mbSzEKxrMRhdsXfw10bFnVwi5njFf091HWdCsfAA2HZk+z+dRfMN2m9POqCI
QK9llq0m6ickJLGndXNtUxpBV6uZ2KCb7c3DIhvt2uAp+MLY4FxBgNY7g5StJtsk
y9u6jl73mbe/dj4giyyuvhYoZ84azi8F0qL9WtUXhAOOs5n0YKgkRE6BmcNUMazM
5jmtscb3AgMBAAGjgZgwgZUwDgYDVR0PAQH/BAQDAgWgMAkGA1UdEwQCMAAwHQYD
VR0lBBYwFAYIKwYBBQUHAwEGCCsGAQUFBwMCMB0GA1UdDgQWBBSnuRUnRrVM4X9U
3q0vzedfYKu/TjAfBgNVHSMEGDAWgBSjk6d14fZ6VKOOOGkuXI/aFCDYjTAZBgNV
HREEEjAQgg55b3VyZG9tYWluLnRsZDANBgkqhkiG9w0BAQUFAAOCAQEA4cuPKedq
UG7JN8KqACfg/4ajo3FyY96R9Nh+xv0Ly0kS4wdOaV0VrCQc8YjPrMeQOfiPb9oS
pZ14EAckcNh7m7tWNBt1NcfQOAp8zmwXyf8zcz2ZRp5ACmPyh++ZVEwbXRvMl6q3
kzKv4UAMKYTMs5JrIB5JsCfRumfJZJxZwHoCnP1AEZ/+uYMvdXtey8KK0x5fvkAf
2qmZ1KKDVvt9zwMMmWUopertAm6qZEO5WeEybLFtrv0iM+fNaehedEXOfqQ+nSer
d+Oz4x+C6UU1QvdDNCqhy0U48KeclB3AjSKOl9CStfaPNuA7wTt6VnT6tg9ZN8BK
JBNOTC+ZBk/tFg==
-----END CERTIFICATE-----
