Certificate:
    Data:
        Version: 3 (0x2)
        Serial Number: 2 (0x2)
    Signature Algorithm: sha1WithRSAEncryption
        Issuer: DC=org, DC=simple, O=Simple Inc, OU=Simple Root CA, CN=Simple Root CA
        Validity
            Not Before: Apr 22 03:46:42 2019 GMT
            Not After : Apr 21 03:46:42 2029 GMT
        Subject: DC=org, DC=simple, O=Simple Inc, OU=Simple Signing CA, CN=Simple Signing CA
        Subject Public Key Info:
            Public Key Algorithm: rsaEncryption
                Public-Key: (2048 bit)
                Modulus:
                    00:e3:64:77:82:68:17:04:fe:43:a9:86:fe:7e:e3:
                    fe:86:d6:50:42:d7:f3:f0:9a:fd:a6:6e:67:94:82:
                    66:a7:09:a6:d1:45:ae:01:8a:9c:19:c8:4f:af:0f:
                    82:9e:3e:db:54:8a:42:28:d4:9e:97:6e:ad:0e:30:
                    f2:53:0d:b7:12:67:92:44:bf:38:a8:d8:e1:a8:b5:
                    17:04:4f:48:15:4b:fe:d4:0b:fc:73:a5:5c:f5:fb:
                    f9:1d:79:f3:10:8b:15:33:fe:1a:76:16:8e:f1:04:
                    b2:75:a9:c8:34:0a:ca:c3:fa:c3:4d:18:aa:b3:59:
                    55:03:46:19:df:a0:9c:99:7f:c7:78:a8:50:90:7b:
                    3c:2a:c2:36:8f:3e:52:ec:dd:aa:31:e0:a3:d8:db:
                    79:2e:75:31:67:fc:8b:40:60:1f:fc:a1:f3:bf:f1:
                    1d:44:15:34:8a:2a:1b:66:aa:6b:48:78:fa:97:06:
                    57:22:87:3e:0b:cc:d7:19:04:13:2a:95:2e:42:8d:
                    c6:fc:5d:8c:40:d7:fd:6c:8f:63:0e:db:ec:9c:97:
                    e4:db:6e:d7:0b:8c:09:e7:7b:ab:89:d7:56:3d:15:
                    e7:d5:ac:d7:d3:49:99:cf:d3:83:30:27:d0:5f:9d:
                    02:4e:b8:25:21:b0:e8:6d:fa:fd:c7:82:55:e1:5c:
                    b8:0d
                Exponent: 65537 (0x10001)
        X509v3 extensions:
            X509v3 Key Usage: critical
                Certificate Sign, CRL Sign
            X509v3 Basic Constraints: critical
                CA:TRUE, pathlen:0
            X509v3 Subject Key Identifier: 
                A3:93:A7:75:E1:F6:7A:54:A3:8E:38:69:2E:5C:8F:DA:14:20:D8:8D
            X509v3 Authority Key Identifier: 
                keyid:52:C0:0E:D0:B6:17:28:BC:1E:ED:04:95:2B:08:C9:AF:82:A6:30:19

    Signature Algorithm: sha1WithRSAEncryption
         42:eb:12:cd:68:96:80:ad:60:0a:8d:a5:20:c8:69:93:e3:7c:
         f5:8f:64:58:09:21:4d:46:f3:ec:b7:73:90:db:f6:ed:b7:bb:
         3c:b5:b2:12:2c:88:89:bf:83:c0:12:ed:12:1f:12:76:0b:dc:
         69:4f:76:7b:01:ff:a9:b3:44:6d:57:3c:84:7d:43:8f:90:45:
         83:e8:2a:9d:f1:f0:cf:be:95:2e:b3:ca:f7:75:3b:11:76:b7:
         f4:7f:87:d1:4d:ee:fe:de:89:3e:4e:f9:b7:24:01:56:49:dd:
         0b:23:c3:d7:57:cc:aa:a4:20:4b:0f:eb:0a:58:30:d6:6f:7f:
         c2:9d:0a:52:b9:6a:e6:87:66:0a:2b:21:32:ae:4e:94:a8:89:
         44:d0:7d:37:72:8f:07:59:fe:f3:ad:da:62:17:8a:79:80:86:
         49:ea:51:93:dd:e2:ee:e0:86:64:3f:5f:4e:c6:6b:69:ea:ab:
         60:a3:08:eb:6b:f7:91:5d:a6:85:58:fe:5a:b7:a8:30:08:59:
         23:37:97:55:6c:5e:64:c7:1e:c7:d9:85:78:7c:f4:63:48:99:
         e4:6b:ec:0b:66:0e:45:0f:ef:23:d5:2d:3d:bb:4d:36:29:b7:
         91:cb:e9:96:8b:fb:45:0c:6f:82:b4:80:5e:18:39:2f:b8:23:
         75:ce:76:13
-----BEGIN CERTIFICATE-----
MIIDzzCCAregAwIBAgIBAjANBgkqhkiG9w0BAQUFADB0MRMwEQYKCZImiZPyLGQB
GRYDb3JnMRYwFAYKCZImiZPyLGQBGRYGc2ltcGxlMRMwEQYDVQQKDApTaW1wbGUg
SW5jMRcwFQYDVQQLDA5TaW1wbGUgUm9vdCBDQTEXMBUGA1UEAwwOU2ltcGxlIFJv
b3QgQ0EwHhcNMTkwNDIyMDM0NjQyWhcNMjkwNDIxMDM0NjQyWjB6MRMwEQYKCZIm
iZPyLGQBGRYDb3JnMRYwFAYKCZImiZPyLGQBGRYGc2ltcGxlMRMwEQYDVQQKDApT
aW1wbGUgSW5jMRowGAYDVQQLDBFTaW1wbGUgU2lnbmluZyBDQTEaMBgGA1UEAwwR
U2ltcGxlIFNpZ25pbmcgQ0EwggEiMA0GCSqGSIb3DQEBAQUAA4IBDwAwggEKAoIB
AQDjZHeCaBcE/kOphv5+4/6G1lBC1/Pwmv2mbmeUgmanCabRRa4BipwZyE+vD4Ke
PttUikIo1J6Xbq0OMPJTDbcSZ5JEvzio2OGotRcET0gVS/7UC/xzpVz1+/kdefMQ
ixUz/hp2Fo7xBLJ1qcg0CsrD+sNNGKqzWVUDRhnfoJyZf8d4qFCQezwqwjaPPlLs
3aox4KPY23kudTFn/ItAYB/8ofO/8R1EFTSKKhtmqmtIePqXBlcihz4LzNcZBBMq
lS5Cjcb8XYxA1/1sj2MO2+ycl+TbbtcLjAnne6uJ11Y9FefVrNfTSZnP04MwJ9Bf
nQJOuCUhsOht+v3HglXhXLgNAgMBAAGjZjBkMA4GA1UdDwEB/wQEAwIBBjASBgNV
HRMBAf8ECDAGAQH/AgEAMB0GA1UdDgQWBBSjk6d14fZ6VKOOOGkuXI/aFCDYjTAf
BgNVHSMEGDAWgBRSwA7QthcovB7tBJUrCMmvgqYwGTANBgkqhkiG9w0BAQUFAAOC
AQEAQusSzWiWgK1gCo2lIMhpk+N89Y9kWAkhTUbz7LdzkNv27be7PLWyEiyIib+D
wBLtEh8SdgvcaU92ewH/qbNEbVc8hH1Dj5BFg+gqnfHwz76VLrPK93U7EXa39H+H
0U3u/t6JPk75tyQBVkndCyPD11fMqqQgSw/rClgw1m9/wp0KUrlq5odmCishMq5O
lKiJRNB9N3KPB1n+863aYheKeYCGSepRk93i7uCGZD9fTsZraeqrYKMI62v3kV2m
hVj+WreoMAhZIzeXVWxeZMcex9mFeHz0Y0iZ5GvsC2YORQ/vI9UtPbtNNim3kcvp
lov7RQxvgrSAXhg5L7gjdc52Ew==
-----END CERTIFICATE-----
